----------------
IN: 
Priv: 3; Virt: 0
0x0000000000001000:  00000297          auipc           t0,0            # 0x1000
0x0000000000001004:  02028593          addi            a1,t0,32
0x0000000000001008:  f1402573          csrrs           a0,mhartid,zero

----------------
IN: 
Priv: 3; Virt: 0
0x000000000000100c:  0182b283          ld              t0,24(t0)
0x0000000000001010:  00028067          jr              t0

----------------
IN: 
Priv: 3; Virt: 0
0x0000000080000000:  0480006f          j               72              # 0x80000048

----------------
IN: 
Priv: 3; Virt: 0
0x0000000080000048:  00000093          mv              ra,zero
0x000000008000004c:  00000113          mv              sp,zero
0x0000000080000050:  00000193          mv              gp,zero
0x0000000080000054:  00000213          mv              tp,zero
0x0000000080000058:  00000293          mv              t0,zero
0x000000008000005c:  00000313          mv              t1,zero
0x0000000080000060:  00000393          mv              t2,zero
0x0000000080000064:  00000413          mv              s0,zero
0x0000000080000068:  00000493          mv              s1,zero
0x000000008000006c:  00000513          mv              a0,zero
0x0000000080000070:  00000593          mv              a1,zero
0x0000000080000074:  00000613          mv              a2,zero
0x0000000080000078:  00000693          mv              a3,zero
0x000000008000007c:  00000713          mv              a4,zero
0x0000000080000080:  00000793          mv              a5,zero
0x0000000080000084:  00000813          mv              a6,zero
0x0000000080000088:  00000893          mv              a7,zero
0x000000008000008c:  00000913          mv              s2,zero
0x0000000080000090:  00000993          mv              s3,zero
0x0000000080000094:  00000a13          mv              s4,zero
0x0000000080000098:  00000a93          mv              s5,zero
0x000000008000009c:  00000b13          mv              s6,zero
0x00000000800000a0:  00000b93          mv              s7,zero
0x00000000800000a4:  00000c13          mv              s8,zero
0x00000000800000a8:  00000c93          mv              s9,zero
0x00000000800000ac:  00000d13          mv              s10,zero
0x00000000800000b0:  00000d93          mv              s11,zero
0x00000000800000b4:  00000e13          mv              t3,zero
0x00000000800000b8:  00000e93          mv              t4,zero
0x00000000800000bc:  00000f13          mv              t5,zero
0x00000000800000c0:  00000f93          mv              t6,zero
0x00000000800000c4:  f1402573          csrrs           a0,mhartid,zero

----------------
IN: 
Priv: 3; Virt: 0
0x00000000800000c8:  00051063          bnez            a0,0            # 0x800000c8

----------------
IN: 
Priv: 3; Virt: 0
0x00000000800000cc:  00000297          auipc           t0,0            # 0x800000cc
0x00000000800000d0:  01028293          addi            t0,t0,16
0x00000000800000d4:  30529073          csrrw           zero,mtvec,t0

----------------
IN: 
Priv: 3; Virt: 0
0x00000000800000d8:  18005073          csrrwi          zero,satp,0

----------------
IN: 
Priv: 3; Virt: 0
0x00000000800000dc:  00000297          auipc           t0,0            # 0x800000dc
0x00000000800000e0:  02428293          addi            t0,t0,36
0x00000000800000e4:  30529073          csrrw           zero,mtvec,t0

----------------
IN: 
Priv: 3; Virt: 0
0x00000000800000e8:  0010029b          addiw           t0,zero,1
0x00000000800000ec:  03529293          slli            t0,t0,53
0x00000000800000f0:  fff28293          addi            t0,t0,-1
0x00000000800000f4:  3b029073          csrrw           zero,pmpaddr0,t0

----------------
IN: 
Priv: 3; Virt: 0
0x00000000800000f8:  01f00293          addi            t0,zero,31
0x00000000800000fc:  3a029073          csrrw           zero,pmpcfg3,t0

----------------
IN: 
Priv: 3; Virt: 0
0x0000000080000100:  30405073          csrrwi          zero,mie,0

----------------
IN: 
Priv: 3; Virt: 0
0x0000000080000104:  00000297          auipc           t0,0            # 0x80000104
0x0000000080000108:  01428293          addi            t0,t0,20
0x000000008000010c:  30529073          csrrw           zero,mtvec,t0

----------------
IN: 
Priv: 3; Virt: 0
0x0000000080000110:  30205073          csrrwi          zero,medeleg,0

----------------
IN: 
Priv: 3; Virt: 0
0x0000000080000114:  30305073          csrrwi          zero,mideleg,0

----------------
IN: 
Priv: 3; Virt: 0
0x0000000080000118:  00000193          mv              gp,zero
0x000000008000011c:  00000297          auipc           t0,0            # 0x8000011c
0x0000000080000120:  ee828293          addi            t0,t0,-280
0x0000000080000124:  30529073          csrrw           zero,mtvec,t0

----------------
IN: 
Priv: 3; Virt: 0
0x0000000080000128:  00100513          addi            a0,zero,1
0x000000008000012c:  01f51513          slli            a0,a0,31
0x0000000080000130:  00055c63          bgez            a0,24           # 0x80000148

----------------
IN: 
Priv: 3; Virt: 0
0x0000000080000148:  00000293          mv              t0,zero
0x000000008000014c:  00028a63          beqz            t0,20           # 0x80000160

----------------
IN: 
Priv: 3; Virt: 0
0x0000000080000160:  30005073          csrrwi          zero,mstatus,0

----------------
IN: 
Priv: 3; Virt: 0
0x0000000080000164:  00000297          auipc           t0,0            # 0x80000164
0x0000000080000168:  01428293          addi            t0,t0,20
0x000000008000016c:  34129073          csrrw           zero,mepc,t0

----------------
IN: 
Priv: 3; Virt: 0
0x0000000080000170:  f1402573          csrrs           a0,mhartid,zero

----------------
IN: 
Priv: 3; Virt: 0
0x0000000080000174:  30200073          mret            

----------------
IN: 
Priv: 0; Virt: 0
0x0000000080000178:  00200193          addi            gp,zero,2
0x000000008000017c:  00000093          mv              ra,zero
0x0000000080000180:  00000113          mv              sp,zero
0x0000000080000184:  00208733          add             a4,ra,sp
0x0000000080000188:  00000393          mv              t2,zero
0x000000008000018c:  4e771063          bne             a4,t2,1248      # 0x8000066c

----------------
IN: 
Priv: 0; Virt: 0
0x0000000080000190:  00300193          addi            gp,zero,3
0x0000000080000194:  00100093          addi            ra,zero,1
0x0000000080000198:  00100113          addi            sp,zero,1
0x000000008000019c:  00208733          add             a4,ra,sp
0x00000000800001a0:  00200393          addi            t2,zero,2
0x00000000800001a4:  4c771463          bne             a4,t2,1224      # 0x8000066c

----------------
IN: 
Priv: 0; Virt: 0
0x00000000800001a8:  00400193          addi            gp,zero,4
0x00000000800001ac:  00300093          addi            ra,zero,3
0x00000000800001b0:  00700113          addi            sp,zero,7
0x00000000800001b4:  00208733          add             a4,ra,sp
0x00000000800001b8:  00a00393          addi            t2,zero,10
0x00000000800001bc:  4a771863          bne             a4,t2,1200      # 0x8000066c

----------------
IN: 
Priv: 0; Virt: 0
0x00000000800001c0:  00500193          addi            gp,zero,5
0x00000000800001c4:  00000093          mv              ra,zero
0x00000000800001c8:  ffff8137          lui             sp,-32768
0x00000000800001cc:  00208733          add             a4,ra,sp
0x00000000800001d0:  ffff83b7          lui             t2,-32768
0x00000000800001d4:  48771c63          bne             a4,t2,1176      # 0x8000066c

----------------
IN: 
Priv: 0; Virt: 0
0x00000000800001d8:  00600193          addi            gp,zero,6
0x00000000800001dc:  800000b7          lui             ra,-2147483648
0x00000000800001e0:  00000113          mv              sp,zero
0x00000000800001e4:  00208733          add             a4,ra,sp
0x00000000800001e8:  800003b7          lui             t2,-2147483648
0x00000000800001ec:  48771063          bne             a4,t2,1152      # 0x8000066c

----------------
IN: 
Priv: 0; Virt: 0
0x00000000800001f0:  00700193          addi            gp,zero,7
0x00000000800001f4:  800000b7          lui             ra,-2147483648
0x00000000800001f8:  ffff8137          lui             sp,-32768
0x00000000800001fc:  00208733          add             a4,ra,sp
0x0000000080000200:  ffff03b7          lui             t2,-65536
0x0000000080000204:  fff3839b          addiw           t2,t2,-1
0x0000000080000208:  00f39393          slli            t2,t2,15
0x000000008000020c:  46771063          bne             a4,t2,1120      # 0x8000066c

----------------
IN: 
Priv: 0; Virt: 0
0x0000000080000210:  00800193          addi            gp,zero,8
0x0000000080000214:  00000093          mv              ra,zero
0x0000000080000218:  00008137          lui             sp,32768
0x000000008000021c:  fff1011b          addiw           sp,sp,-1
0x0000000080000220:  00208733          add             a4,ra,sp
0x0000000080000224:  000083b7          lui             t2,32768
0x0000000080000228:  fff3839b          addiw           t2,t2,-1
0x000000008000022c:  44771063          bne             a4,t2,1088      # 0x8000066c

----------------
IN: 
Priv: 0; Virt: 0
0x0000000080000230:  00900193          addi            gp,zero,9
0x0000000080000234:  800000b7          lui             ra,-2147483648
0x0000000080000238:  fff0809b          addiw           ra,ra,-1
0x000000008000023c:  00000113          mv              sp,zero
0x0000000080000240:  00208733          add             a4,ra,sp
0x0000000080000244:  800003b7          lui             t2,-2147483648
0x0000000080000248:  fff3839b          addiw           t2,t2,-1
0x000000008000024c:  42771063          bne             a4,t2,1056      # 0x8000066c

----------------
IN: 
Priv: 0; Virt: 0
0x0000000080000250:  00a00193          addi            gp,zero,10
0x0000000080000254:  800000b7          lui             ra,-2147483648
0x0000000080000258:  fff0809b          addiw           ra,ra,-1
0x000000008000025c:  00008137          lui             sp,32768
0x0000000080000260:  fff1011b          addiw           sp,sp,-1
0x0000000080000264:  00208733          add             a4,ra,sp
0x0000000080000268:  000103b7          lui             t2,65536
0x000000008000026c:  0013839b          addiw           t2,t2,1
0x0000000080000270:  00f39393          slli            t2,t2,15
0x0000000080000274:  ffe38393          addi            t2,t2,-2
0x0000000080000278:  3e771a63          bne             a4,t2,1012      # 0x8000066c

----------------
IN: 
Priv: 0; Virt: 0
0x000000008000027c:  00b00193          addi            gp,zero,11
0x0000000080000280:  800000b7          lui             ra,-2147483648
0x0000000080000284:  00008137          lui             sp,32768
0x0000000080000288:  fff1011b          addiw           sp,sp,-1
0x000000008000028c:  00208733          add             a4,ra,sp
0x0000000080000290:  800083b7          lui             t2,-2147450880
0x0000000080000294:  fff3839b          addiw           t2,t2,-1
0x0000000080000298:  3c771a63          bne             a4,t2,980       # 0x8000066c

----------------
IN: 
Priv: 0; Virt: 0
0x000000008000029c:  00c00193          addi            gp,zero,12
0x00000000800002a0:  800000b7          lui             ra,-2147483648
0x00000000800002a4:  fff0809b          addiw           ra,ra,-1
0x00000000800002a8:  ffff8137          lui             sp,-32768
0x00000000800002ac:  00208733          add             a4,ra,sp
0x00000000800002b0:  7fff83b7          lui             t2,2147450880
0x00000000800002b4:  fff3839b          addiw           t2,t2,-1
0x00000000800002b8:  3a771a63          bne             a4,t2,948       # 0x8000066c

----------------
IN: 
Priv: 0; Virt: 0
0x00000000800002bc:  00d00193          addi            gp,zero,13
0x00000000800002c0:  00000093          mv              ra,zero
0x00000000800002c4:  fff00113          addi            sp,zero,-1
0x00000000800002c8:  00208733          add             a4,ra,sp
0x00000000800002cc:  fff00393          addi            t2,zero,-1
0x00000000800002d0:  38771e63          bne             a4,t2,924       # 0x8000066c

----------------
IN: 
Priv: 0; Virt: 0
0x00000000800002d4:  00e00193          addi            gp,zero,14
0x00000000800002d8:  fff00093          addi            ra,zero,-1
0x00000000800002dc:  00100113          addi            sp,zero,1
0x00000000800002e0:  00208733          add             a4,ra,sp
0x00000000800002e4:  00000393          mv              t2,zero
0x00000000800002e8:  38771263          bne             a4,t2,900       # 0x8000066c

----------------
IN: 
Priv: 0; Virt: 0
0x00000000800002ec:  00f00193          addi            gp,zero,15
0x00000000800002f0:  fff00093          addi            ra,zero,-1
0x00000000800002f4:  fff00113          addi            sp,zero,-1
0x00000000800002f8:  00208733          add             a4,ra,sp
0x00000000800002fc:  ffe00393          addi            t2,zero,-2
0x0000000080000300:  36771663          bne             a4,t2,876       # 0x8000066c

----------------
IN: 
Priv: 0; Virt: 0
0x0000000080000304:  01000193          addi            gp,zero,16
0x0000000080000308:  00100093          addi            ra,zero,1
0x000000008000030c:  80000137          lui             sp,-2147483648
0x0000000080000310:  fff1011b          addiw           sp,sp,-1
0x0000000080000314:  00208733          add             a4,ra,sp
0x0000000080000318:  0010039b          addiw           t2,zero,1
0x000000008000031c:  01f39393          slli            t2,t2,31
0x0000000080000320:  34771663          bne             a4,t2,844       # 0x8000066c

----------------
IN: 
Priv: 0; Virt: 0
0x0000000080000324:  01100193          addi            gp,zero,17
0x0000000080000328:  00d00093          addi            ra,zero,13
0x000000008000032c:  00b00113          addi            sp,zero,11
0x0000000080000330:  002080b3          add             ra,ra,sp
0x0000000080000334:  01800393          addi            t2,zero,24
0x0000000080000338:  32709a63          bne             ra,t2,820       # 0x8000066c

----------------
IN: 
Priv: 0; Virt: 0
0x000000008000033c:  01200193          addi            gp,zero,18
0x0000000080000340:  00e00093          addi            ra,zero,14
0x0000000080000344:  00b00113          addi            sp,zero,11
0x0000000080000348:  00208133          add             sp,ra,sp
0x000000008000034c:  01900393          addi            t2,zero,25
0x0000000080000350:  30711e63          bne             sp,t2,796       # 0x8000066c

----------------
IN: 
Priv: 0; Virt: 0
0x0000000080000354:  01300193          addi            gp,zero,19
0x0000000080000358:  00d00093          addi            ra,zero,13
0x000000008000035c:  001080b3          add             ra,ra,ra
0x0000000080000360:  01a00393          addi            t2,zero,26
0x0000000080000364:  30709463          bne             ra,t2,776       # 0x8000066c

----------------
IN: 
Priv: 0; Virt: 0
0x0000000080000368:  01400193          addi            gp,zero,20
0x000000008000036c:  00000213          mv              tp,zero
0x0000000080000370:  00d00093          addi            ra,zero,13
0x0000000080000374:  00b00113          addi            sp,zero,11
0x0000000080000378:  00208733          add             a4,ra,sp
0x000000008000037c:  00070313          mv              t1,a4
0x0000000080000380:  00120213          addi            tp,tp,1
0x0000000080000384:  00200293          addi            t0,zero,2
0x0000000080000388:  fe5214e3          bne             tp,t0,-24       # 0x80000370

----------------
IN: 
Priv: 0; Virt: 0
0x0000000080000370:  00d00093          addi            ra,zero,13
0x0000000080000374:  00b00113          addi            sp,zero,11
0x0000000080000378:  00208733          add             a4,ra,sp
0x000000008000037c:  00070313          mv              t1,a4
0x0000000080000380:  00120213          addi            tp,tp,1
0x0000000080000384:  00200293          addi            t0,zero,2
0x0000000080000388:  fe5214e3          bne             tp,t0,-24       # 0x80000370

----------------
IN: 
Priv: 0; Virt: 0
0x000000008000038c:  01800393          addi            t2,zero,24
0x0000000080000390:  2c731e63          bne             t1,t2,732       # 0x8000066c

----------------
IN: 
Priv: 0; Virt: 0
0x0000000080000394:  01500193          addi            gp,zero,21
0x0000000080000398:  00000213          mv              tp,zero
0x000000008000039c:  00e00093          addi            ra,zero,14
0x00000000800003a0:  00b00113          addi            sp,zero,11
0x00000000800003a4:  00208733          add             a4,ra,sp
0x00000000800003a8:  00000013          nop             
0x00000000800003ac:  00070313          mv              t1,a4
0x00000000800003b0:  00120213          addi            tp,tp,1
0x00000000800003b4:  00200293          addi            t0,zero,2
0x00000000800003b8:  fe5212e3          bne             tp,t0,-28       # 0x8000039c

----------------
IN: 
Priv: 0; Virt: 0
0x000000008000039c:  00e00093          addi            ra,zero,14
0x00000000800003a0:  00b00113          addi            sp,zero,11
0x00000000800003a4:  00208733          add             a4,ra,sp
0x00000000800003a8:  00000013          nop             
0x00000000800003ac:  00070313          mv              t1,a4
0x00000000800003b0:  00120213          addi            tp,tp,1
0x00000000800003b4:  00200293          addi            t0,zero,2
0x00000000800003b8:  fe5212e3          bne             tp,t0,-28       # 0x8000039c

----------------
IN: 
Priv: 0; Virt: 0
0x00000000800003bc:  01900393          addi            t2,zero,25
0x00000000800003c0:  2a731663          bne             t1,t2,684       # 0x8000066c

----------------
IN: 
Priv: 0; Virt: 0
0x00000000800003c4:  01600193          addi            gp,zero,22
0x00000000800003c8:  00000213          mv              tp,zero
0x00000000800003cc:  00f00093          addi            ra,zero,15
0x00000000800003d0:  00b00113          addi            sp,zero,11
0x00000000800003d4:  00208733          add             a4,ra,sp
0x00000000800003d8:  00000013          nop             
0x00000000800003dc:  00000013          nop             
0x00000000800003e0:  00070313          mv              t1,a4
0x00000000800003e4:  00120213          addi            tp,tp,1
0x00000000800003e8:  00200293          addi            t0,zero,2
0x00000000800003ec:  fe5210e3          bne             tp,t0,-32       # 0x800003cc

----------------
IN: 
Priv: 0; Virt: 0
0x00000000800003cc:  00f00093          addi            ra,zero,15
0x00000000800003d0:  00b00113          addi            sp,zero,11
0x00000000800003d4:  00208733          add             a4,ra,sp
0x00000000800003d8:  00000013          nop             
0x00000000800003dc:  00000013          nop             
0x00000000800003e0:  00070313          mv              t1,a4
0x00000000800003e4:  00120213          addi            tp,tp,1
0x00000000800003e8:  00200293          addi            t0,zero,2
0x00000000800003ec:  fe5210e3          bne             tp,t0,-32       # 0x800003cc

----------------
IN: 
Priv: 0; Virt: 0
0x00000000800003f0:  01a00393          addi            t2,zero,26
0x00000000800003f4:  26731c63          bne             t1,t2,632       # 0x8000066c

----------------
IN: 
Priv: 0; Virt: 0
0x00000000800003f8:  01700193          addi            gp,zero,23
0x00000000800003fc:  00000213          mv              tp,zero
0x0000000080000400:  00d00093          addi            ra,zero,13
0x0000000080000404:  00b00113          addi            sp,zero,11
0x0000000080000408:  00208733          add             a4,ra,sp
0x000000008000040c:  00120213          addi            tp,tp,1
0x0000000080000410:  00200293          addi            t0,zero,2
0x0000000080000414:  fe5216e3          bne             tp,t0,-20       # 0x80000400

----------------
IN: 
Priv: 0; Virt: 0
0x0000000080000400:  00d00093          addi            ra,zero,13
0x0000000080000404:  00b00113          addi            sp,zero,11
0x0000000080000408:  00208733          add             a4,ra,sp
0x000000008000040c:  00120213          addi            tp,tp,1
0x0000000080000410:  00200293          addi            t0,zero,2
0x0000000080000414:  fe5216e3          bne             tp,t0,-20       # 0x80000400

----------------
IN: 
Priv: 0; Virt: 0
0x0000000080000418:  01800393          addi            t2,zero,24
0x000000008000041c:  24771863          bne             a4,t2,592       # 0x8000066c

----------------
IN: 
Priv: 0; Virt: 0
0x0000000080000420:  01800193          addi            gp,zero,24
0x0000000080000424:  00000213          mv              tp,zero
0x0000000080000428:  00e00093          addi            ra,zero,14
0x000000008000042c:  00b00113          addi            sp,zero,11
0x0000000080000430:  00000013          nop             
0x0000000080000434:  00208733          add             a4,ra,sp
0x0000000080000438:  00120213          addi            tp,tp,1
0x000000008000043c:  00200293          addi            t0,zero,2
0x0000000080000440:  fe5214e3          bne             tp,t0,-24       # 0x80000428

----------------
IN: 
Priv: 0; Virt: 0
0x0000000080000428:  00e00093          addi            ra,zero,14
0x000000008000042c:  00b00113          addi            sp,zero,11
0x0000000080000430:  00000013          nop             
0x0000000080000434:  00208733          add             a4,ra,sp
0x0000000080000438:  00120213          addi            tp,tp,1
0x000000008000043c:  00200293          addi            t0,zero,2
0x0000000080000440:  fe5214e3          bne             tp,t0,-24       # 0x80000428

----------------
IN: 
Priv: 0; Virt: 0
0x0000000080000444:  01900393          addi            t2,zero,25
0x0000000080000448:  22771263          bne             a4,t2,548       # 0x8000066c

----------------
IN: 
Priv: 0; Virt: 0
0x000000008000044c:  01900193          addi            gp,zero,25
0x0000000080000450:  00000213          mv              tp,zero
0x0000000080000454:  00f00093          addi            ra,zero,15
0x0000000080000458:  00b00113          addi            sp,zero,11
0x000000008000045c:  00000013          nop             
0x0000000080000460:  00000013          nop             
0x0000000080000464:  00208733          add             a4,ra,sp
0x0000000080000468:  00120213          addi            tp,tp,1
0x000000008000046c:  00200293          addi            t0,zero,2
0x0000000080000470:  fe5212e3          bne             tp,t0,-28       # 0x80000454

----------------
IN: 
Priv: 0; Virt: 0
0x0000000080000454:  00f00093          addi            ra,zero,15
0x0000000080000458:  00b00113          addi            sp,zero,11
0x000000008000045c:  00000013          nop             
0x0000000080000460:  00000013          nop             
0x0000000080000464:  00208733          add             a4,ra,sp
0x0000000080000468:  00120213          addi            tp,tp,1
0x000000008000046c:  00200293          addi            t0,zero,2
0x0000000080000470:  fe5212e3          bne             tp,t0,-28       # 0x80000454

----------------
IN: 
Priv: 0; Virt: 0
0x0000000080000474:  01a00393          addi            t2,zero,26
0x0000000080000478:  1e771a63          bne             a4,t2,500       # 0x8000066c

----------------
IN: 
Priv: 0; Virt: 0
0x000000008000047c:  01a00193          addi            gp,zero,26
0x0000000080000480:  00000213          mv              tp,zero
0x0000000080000484:  00d00093          addi            ra,zero,13
0x0000000080000488:  00000013          nop             
0x000000008000048c:  00b00113          addi            sp,zero,11
0x0000000080000490:  00208733          add             a4,ra,sp
0x0000000080000494:  00120213          addi            tp,tp,1
0x0000000080000498:  00200293          addi            t0,zero,2
0x000000008000049c:  fe5214e3          bne             tp,t0,-24       # 0x80000484

----------------
IN: 
Priv: 0; Virt: 0
0x0000000080000484:  00d00093          addi            ra,zero,13
0x0000000080000488:  00000013          nop             
0x000000008000048c:  00b00113          addi            sp,zero,11
0x0000000080000490:  00208733          add             a4,ra,sp
0x0000000080000494:  00120213          addi            tp,tp,1
0x0000000080000498:  00200293          addi            t0,zero,2
0x000000008000049c:  fe5214e3          bne             tp,t0,-24       # 0x80000484

----------------
IN: 
Priv: 0; Virt: 0
0x00000000800004a0:  01800393          addi            t2,zero,24
0x00000000800004a4:  1c771463          bne             a4,t2,456       # 0x8000066c

----------------
IN: 
Priv: 0; Virt: 0
0x00000000800004a8:  01b00193          addi            gp,zero,27
0x00000000800004ac:  00000213          mv              tp,zero
0x00000000800004b0:  00e00093          addi            ra,zero,14
0x00000000800004b4:  00000013          nop             
0x00000000800004b8:  00b00113          addi            sp,zero,11
0x00000000800004bc:  00000013          nop             
0x00000000800004c0:  00208733          add             a4,ra,sp
0x00000000800004c4:  00120213          addi            tp,tp,1
0x00000000800004c8:  00200293          addi            t0,zero,2
0x00000000800004cc:  fe5212e3          bne             tp,t0,-28       # 0x800004b0

----------------
IN: 
Priv: 0; Virt: 0
0x00000000800004b0:  00e00093          addi            ra,zero,14
0x00000000800004b4:  00000013          nop             
0x00000000800004b8:  00b00113          addi            sp,zero,11
0x00000000800004bc:  00000013          nop             
0x00000000800004c0:  00208733          add             a4,ra,sp
0x00000000800004c4:  00120213          addi            tp,tp,1
0x00000000800004c8:  00200293          addi            t0,zero,2
0x00000000800004cc:  fe5212e3          bne             tp,t0,-28       # 0x800004b0

----------------
IN: 
Priv: 0; Virt: 0
0x00000000800004d0:  01900393          addi            t2,zero,25
0x00000000800004d4:  18771c63          bne             a4,t2,408       # 0x8000066c

----------------
IN: 
Priv: 0; Virt: 0
0x00000000800004d8:  01c00193          addi            gp,zero,28
0x00000000800004dc:  00000213          mv              tp,zero
0x00000000800004e0:  00f00093          addi            ra,zero,15
0x00000000800004e4:  00000013          nop             
0x00000000800004e8:  00000013          nop             
0x00000000800004ec:  00b00113          addi            sp,zero,11
0x00000000800004f0:  00208733          add             a4,ra,sp
0x00000000800004f4:  00120213          addi            tp,tp,1
0x00000000800004f8:  00200293          addi            t0,zero,2
0x00000000800004fc:  fe5212e3          bne             tp,t0,-28       # 0x800004e0

----------------
IN: 
Priv: 0; Virt: 0
0x00000000800004e0:  00f00093          addi            ra,zero,15
0x00000000800004e4:  00000013          nop             
0x00000000800004e8:  00000013          nop             
0x00000000800004ec:  00b00113          addi            sp,zero,11
0x00000000800004f0:  00208733          add             a4,ra,sp
0x00000000800004f4:  00120213          addi            tp,tp,1
0x00000000800004f8:  00200293          addi            t0,zero,2
0x00000000800004fc:  fe5212e3          bne             tp,t0,-28       # 0x800004e0

----------------
IN: 
Priv: 0; Virt: 0
0x0000000080000500:  01a00393          addi            t2,zero,26
0x0000000080000504:  16771463          bne             a4,t2,360       # 0x8000066c

----------------
IN: 
Priv: 0; Virt: 0
0x0000000080000508:  01d00193          addi            gp,zero,29
0x000000008000050c:  00000213          mv              tp,zero
0x0000000080000510:  00b00113          addi            sp,zero,11
0x0000000080000514:  00d00093          addi            ra,zero,13
0x0000000080000518:  00208733          add             a4,ra,sp
0x000000008000051c:  00120213          addi            tp,tp,1
0x0000000080000520:  00200293          addi            t0,zero,2
0x0000000080000524:  fe5216e3          bne             tp,t0,-20       # 0x80000510

----------------
IN: 
Priv: 0; Virt: 0
0x0000000080000510:  00b00113          addi            sp,zero,11
0x0000000080000514:  00d00093          addi            ra,zero,13
0x0000000080000518:  00208733          add             a4,ra,sp
0x000000008000051c:  00120213          addi            tp,tp,1
0x0000000080000520:  00200293          addi            t0,zero,2
0x0000000080000524:  fe5216e3          bne             tp,t0,-20       # 0x80000510

----------------
IN: 
Priv: 0; Virt: 0
0x0000000080000528:  01800393          addi            t2,zero,24
0x000000008000052c:  14771063          bne             a4,t2,320       # 0x8000066c

----------------
IN: 
Priv: 0; Virt: 0
0x0000000080000530:  01e00193          addi            gp,zero,30
0x0000000080000534:  00000213          mv              tp,zero
0x0000000080000538:  00b00113          addi            sp,zero,11
0x000000008000053c:  00e00093          addi            ra,zero,14
0x0000000080000540:  00000013          nop             
0x0000000080000544:  00208733          add             a4,ra,sp
0x0000000080000548:  00120213          addi            tp,tp,1
0x000000008000054c:  00200293          addi            t0,zero,2
0x0000000080000550:  fe5214e3          bne             tp,t0,-24       # 0x80000538

----------------
IN: 
Priv: 0; Virt: 0
0x0000000080000538:  00b00113          addi            sp,zero,11
0x000000008000053c:  00e00093          addi            ra,zero,14
0x0000000080000540:  00000013          nop             
0x0000000080000544:  00208733          add             a4,ra,sp
0x0000000080000548:  00120213          addi            tp,tp,1
0x000000008000054c:  00200293          addi            t0,zero,2
0x0000000080000550:  fe5214e3          bne             tp,t0,-24       # 0x80000538

----------------
IN: 
Priv: 0; Virt: 0
0x0000000080000554:  01900393          addi            t2,zero,25
0x0000000080000558:  10771a63          bne             a4,t2,276       # 0x8000066c

----------------
IN: 
Priv: 0; Virt: 0
0x000000008000055c:  01f00193          addi            gp,zero,31
0x0000000080000560:  00000213          mv              tp,zero
0x0000000080000564:  00b00113          addi            sp,zero,11
0x0000000080000568:  00f00093          addi            ra,zero,15
0x000000008000056c:  00000013          nop             
0x0000000080000570:  00000013          nop             
0x0000000080000574:  00208733          add             a4,ra,sp
0x0000000080000578:  00120213          addi            tp,tp,1
0x000000008000057c:  00200293          addi            t0,zero,2
0x0000000080000580:  fe5212e3          bne             tp,t0,-28       # 0x80000564

----------------
IN: 
Priv: 0; Virt: 0
0x0000000080000564:  00b00113          addi            sp,zero,11
0x0000000080000568:  00f00093          addi            ra,zero,15
0x000000008000056c:  00000013          nop             
0x0000000080000570:  00000013          nop             
0x0000000080000574:  00208733          add             a4,ra,sp
0x0000000080000578:  00120213          addi            tp,tp,1
0x000000008000057c:  00200293          addi            t0,zero,2
0x0000000080000580:  fe5212e3          bne             tp,t0,-28       # 0x80000564

----------------
IN: 
Priv: 0; Virt: 0
0x0000000080000584:  01a00393          addi            t2,zero,26
0x0000000080000588:  0e771263          bne             a4,t2,228       # 0x8000066c

----------------
IN: 
Priv: 0; Virt: 0
0x000000008000058c:  02000193          addi            gp,zero,32
0x0000000080000590:  00000213          mv              tp,zero
0x0000000080000594:  00b00113          addi            sp,zero,11
0x0000000080000598:  00000013          nop             
0x000000008000059c:  00d00093          addi            ra,zero,13
0x00000000800005a0:  00208733          add             a4,ra,sp
0x00000000800005a4:  00120213          addi            tp,tp,1
0x00000000800005a8:  00200293          addi            t0,zero,2
0x00000000800005ac:  fe5214e3          bne             tp,t0,-24       # 0x80000594

----------------
IN: 
Priv: 0; Virt: 0
0x0000000080000594:  00b00113          addi            sp,zero,11
0x0000000080000598:  00000013          nop             
0x000000008000059c:  00d00093          addi            ra,zero,13
0x00000000800005a0:  00208733          add             a4,ra,sp
0x00000000800005a4:  00120213          addi            tp,tp,1
0x00000000800005a8:  00200293          addi            t0,zero,2
0x00000000800005ac:  fe5214e3          bne             tp,t0,-24       # 0x80000594

----------------
IN: 
Priv: 0; Virt: 0
0x00000000800005b0:  01800393          addi            t2,zero,24
0x00000000800005b4:  0a771c63          bne             a4,t2,184       # 0x8000066c

----------------
IN: 
Priv: 0; Virt: 0
0x00000000800005b8:  02100193          addi            gp,zero,33
0x00000000800005bc:  00000213          mv              tp,zero
0x00000000800005c0:  00b00113          addi            sp,zero,11
0x00000000800005c4:  00000013          nop             
0x00000000800005c8:  00e00093          addi            ra,zero,14
0x00000000800005cc:  00000013          nop             
0x00000000800005d0:  00208733          add             a4,ra,sp
0x00000000800005d4:  00120213          addi            tp,tp,1
0x00000000800005d8:  00200293          addi            t0,zero,2
0x00000000800005dc:  fe5212e3          bne             tp,t0,-28       # 0x800005c0

----------------
IN: 
Priv: 0; Virt: 0
0x00000000800005c0:  00b00113          addi            sp,zero,11
0x00000000800005c4:  00000013          nop             
0x00000000800005c8:  00e00093          addi            ra,zero,14
0x00000000800005cc:  00000013          nop             
0x00000000800005d0:  00208733          add             a4,ra,sp
0x00000000800005d4:  00120213          addi            tp,tp,1
0x00000000800005d8:  00200293          addi            t0,zero,2
0x00000000800005dc:  fe5212e3          bne             tp,t0,-28       # 0x800005c0

----------------
IN: 
Priv: 0; Virt: 0
0x00000000800005e0:  01900393          addi            t2,zero,25
0x00000000800005e4:  08771463          bne             a4,t2,136       # 0x8000066c

----------------
IN: 
Priv: 0; Virt: 0
0x00000000800005e8:  02200193          addi            gp,zero,34
0x00000000800005ec:  00000213          mv              tp,zero
0x00000000800005f0:  00b00113          addi            sp,zero,11
0x00000000800005f4:  00000013          nop             
0x00000000800005f8:  00000013          nop             
0x00000000800005fc:  00f00093          addi            ra,zero,15
0x0000000080000600:  00208733          add             a4,ra,sp
0x0000000080000604:  00120213          addi            tp,tp,1
0x0000000080000608:  00200293          addi            t0,zero,2
0x000000008000060c:  fe5212e3          bne             tp,t0,-28       # 0x800005f0

----------------
IN: 
Priv: 0; Virt: 0
0x00000000800005f0:  00b00113          addi            sp,zero,11
0x00000000800005f4:  00000013          nop             
0x00000000800005f8:  00000013          nop             
0x00000000800005fc:  00f00093          addi            ra,zero,15
0x0000000080000600:  00208733          add             a4,ra,sp
0x0000000080000604:  00120213          addi            tp,tp,1
0x0000000080000608:  00200293          addi            t0,zero,2
0x000000008000060c:  fe5212e3          bne             tp,t0,-28       # 0x800005f0

----------------
IN: 
Priv: 0; Virt: 0
0x0000000080000610:  01a00393          addi            t2,zero,26
0x0000000080000614:  04771c63          bne             a4,t2,88        # 0x8000066c

----------------
IN: 
Priv: 0; Virt: 0
0x0000000080000618:  02300193          addi            gp,zero,35
0x000000008000061c:  00f00093          addi            ra,zero,15
0x0000000080000620:  00100133          add             sp,zero,ra
0x0000000080000624:  00f00393          addi            t2,zero,15
0x0000000080000628:  04711263          bne             sp,t2,68        # 0x8000066c

----------------
IN: 
Priv: 0; Virt: 0
0x000000008000062c:  02400193          addi            gp,zero,36
0x0000000080000630:  02000093          addi            ra,zero,32
0x0000000080000634:  00008133          add             sp,ra,zero
0x0000000080000638:  02000393          addi            t2,zero,32
0x000000008000063c:  02711863          bne             sp,t2,48        # 0x8000066c

----------------
IN: 
Priv: 0; Virt: 0
0x0000000080000640:  02500193          addi            gp,zero,37
0x0000000080000644:  000000b3          add             ra,zero,zero
0x0000000080000648:  00000393          mv              t2,zero
0x000000008000064c:  02709063          bne             ra,t2,32        # 0x8000066c

----------------
IN: 
Priv: 0; Virt: 0
0x0000000080000650:  02600193          addi            gp,zero,38
0x0000000080000654:  01000093          addi            ra,zero,16
0x0000000080000658:  01e00113          addi            sp,zero,30
0x000000008000065c:  00208033          add             zero,ra,sp
0x0000000080000660:  00000393          mv              t2,zero
0x0000000080000664:  00701463          bne             zero,t2,8       # 0x8000066c

----------------
IN: 
Priv: 0; Virt: 0
0x0000000080000668:  02301063          bne             zero,gp,32      # 0x80000688

----------------
IN: 
Priv: 0; Virt: 0
0x0000000080000688:  0ff0000f          fence           iorw,iorw
0x000000008000068c:  00100193          addi            gp,zero,1
0x0000000080000690:  05d00893          addi            a7,zero,93
0x0000000080000694:  00000513          mv              a0,zero
0x0000000080000698:  00000073          ecall           

----------------
IN: 
Priv: 3; Virt: 0
0x0000000080000004:  34202f73          csrrs           t5,mcause,zero

----------------
IN: 
Priv: 3; Virt: 0
0x0000000080000008:  00800f93          addi            t6,zero,8
0x000000008000000c:  03ff0863          beq             t5,t6,48        # 0x8000003c

----------------
IN: 
Priv: 3; Virt: 0
0x000000008000003c:  00001f17          auipc           t5,4096         # 0x8000103c
0x0000000080000040:  fc3f2223          sw              gp,-60(t5)
0x0000000080000044:  ff9ff06f          j               -8              # 0x8000003c

